target datalayout = "e-m:e-p270:32:32-p271:32:32-p272:64:64-i64:64-i128:128-f80:128-n8:16:32:64-S128"
target triple = "x86_64-pc-linux-gnu"

@.str = private unnamed_addr constant [2 x i8] c":\00", align 1
@.str.1 = private unnamed_addr constant [5 x i8] c"drop\00", align 1

; Function Attrs: mustprogress nounwind uwtable
define dso_local i32 @hb_subset_axis_range_from_string(ptr noundef %0, i32 noundef %1, ptr noundef %2, ptr noundef %3, ptr noundef %4) #0 {
  %6 = alloca i32, align 4
  %7 = alloca ptr, align 8
  %8 = alloca i32, align 4
  %9 = alloca ptr, align 8
  %10 = alloca ptr, align 8
  %11 = alloca ptr, align 8
  %12 = alloca ptr, align 8
  %13 = alloca ptr, align 8
  %14 = alloca i32, align 4
  %15 = alloca double, align 8
  %16 = alloca [3 x float], align 4
  %17 = alloca i32, align 4
  %18 = alloca i32, align 4
  %19 = alloca double, align 8
  store ptr %0, ptr %7, align 8, !tbaa !98
  store i32 %1, ptr %8, align 4, !tbaa !43
  store ptr %2, ptr %9, align 8, !tbaa !91
  store ptr %3, ptr %10, align 8, !tbaa !91
  store ptr %4, ptr %11, align 8, !tbaa !91
  %20 = load i32, ptr %8, align 4, !tbaa !43
  %21 = icmp slt i32 %20, 0
  br i1 %21, label %22, label %26

22:                                               ; preds = %5
  %23 = load ptr, ptr %7, align 8, !tbaa !98
  %24 = call i64 @strlen(ptr noundef %23) #15
  %25 = trunc i64 %24 to i32
  store i32 %25, ptr %8, align 4, !tbaa !43
  br label %26

26:                                               ; preds = %22, %5
  call void @llvm.lifetime.start.p0(i64 8, ptr %12) #13
  %27 = load ptr, ptr %7, align 8, !tbaa !98
  %28 = load i32, ptr %8, align 4, !tbaa !43
  %29 = sext i32 %28 to i64
  %30 = getelementptr inbounds i8, ptr %27, i64 %29
  store ptr %30, ptr %12, align 8, !tbaa !98
  call void @llvm.lifetime.start.p0(i64 8, ptr %13) #13
  %31 = load ptr, ptr %7, align 8, !tbaa !98
  %32 = call noundef ptr @strpbrk(ptr noundef %31, ptr noundef @.str) #15
  store ptr %32, ptr %13, align 8, !tbaa !98
  %33 = load ptr, ptr %13, align 8, !tbaa !98
  %34 = icmp ne ptr %33, null
  br i1 %34, label %58, label %35

35:                                               ; preds = %26
  %36 = load ptr, ptr %7, align 8, !tbaa !98
  %37 = call i32 @strcmp(ptr noundef %36, ptr noundef @.str.1) #15
  %38 = icmp eq i32 %37, 0
  br i1 %38, label %39, label %43

39:                                               ; preds = %35
  %40 = load ptr, ptr %9, align 8, !tbaa !91
  store float 0x7FF8000000000000, ptr %40, align 4, !tbaa !86
  %41 = load ptr, ptr %11, align 8, !tbaa !91
  store float 0x7FF8000000000000, ptr %41, align 4, !tbaa !86
  %42 = load ptr, ptr %10, align 8, !tbaa !91
  store float 0x7FF8000000000000, ptr %42, align 4, !tbaa !86
  store i32 1, ptr %6, align 4
  store i32 1, ptr %14, align 4
  br label %138

43:                                               ; preds = %35
  call void @llvm.lifetime.start.p0(i64 8, ptr %15) #13
  %44 = load ptr, ptr %12, align 8, !tbaa !98
  %45 = call noundef zeroext i1 @_Z15hb_parse_doublePPKcS0_Pdb(ptr noundef %7, ptr noundef %44, ptr noundef %15, i1 noundef zeroext false)
  br i1 %45, label %47, label %46

46:                                               ; preds = %43
  store i32 0, ptr %6, align 4
  store i32 1, ptr %14, align 4
  br label %57

47:                                               ; preds = %43
  %48 = load double, ptr %15, align 8, !tbaa !74
  %49 = fptrunc double %48 to float
  %50 = load ptr, ptr %9, align 8, !tbaa !91
  store float %49, ptr %50, align 4, !tbaa !86
  %51 = load double, ptr %15, align 8, !tbaa !74
  %52 = fptrunc double %51 to float
  %53 = load ptr, ptr %11, align 8, !tbaa !91
  store float %52, ptr %53, align 4, !tbaa !86
  %54 = load double, ptr %15, align 8, !tbaa !74
  %55 = fptrunc double %54 to float
  %56 = load ptr, ptr %10, align 8, !tbaa !91
  store float %55, ptr %56, align 4, !tbaa !86
  store i32 1, ptr %6, align 4
  store i32 1, ptr %14, align 4
  br label %57

57:                                               ; preds = %47, %46
  call void @llvm.lifetime.end.p0(i64 8, ptr %15) #13
  br label %138

58:                                               ; preds = %26
  call void @llvm.lifetime.start.p0(i64 12, ptr %16) #13
  call void @llvm.lifetime.start.p0(i64 4, ptr %17) #13
  store i32 0, ptr %17, align 4, !tbaa !43
  call void @llvm.lifetime.start.p0(i64 4, ptr %18) #13
  store i32 0, ptr %18, align 4, !tbaa !43
  br label %59

59:                                               ; preds = %106, %58
  %60 = load i32, ptr %18, align 4, !tbaa !43
  %61 = icmp slt i32 %60, 3
  br i1 %61, label %63, label %62

62:                                               ; preds = %59
  store i32 2, ptr %14, align 4
  br label %109

63:                                               ; preds = %59
  %64 = load i32, ptr %17, align 4, !tbaa !43
  %65 = add nsw i32 %64, 1
  store i32 %65, ptr %17, align 4, !tbaa !43
  %66 = load ptr, ptr %7, align 8, !tbaa !98
  %67 = load i8, ptr %66, align 1, !tbaa !100
  %68 = icmp ne i8 %67, 0
  br i1 %68, label %69, label %73

69:                                               ; preds = %63
  %70 = load ptr, ptr %13, align 8, !tbaa !98
  %71 = load ptr, ptr %7, align 8, !tbaa !98
  %72 = icmp eq ptr %70, %71
  br i1 %72, label %73, label %85

73:                                               ; preds = %69, %63
  %74 = load i32, ptr %18, align 4, !tbaa !43
  %75 = sext i32 %74 to i64
  %76 = getelementptr inbounds [3 x float], ptr %16, i64 0, i64 %75
  store float 0x7FF8000000000000, ptr %76, align 4, !tbaa !86
  %77 = load ptr, ptr %13, align 8, !tbaa !98
  %78 = icmp eq ptr %77, null
  br i1 %78, label %79, label %80

79:                                               ; preds = %73
  store i32 2, ptr %14, align 4
  br label %109

80:                                               ; preds = %73
  %81 = load ptr, ptr %13, align 8, !tbaa !98
  %82 = getelementptr inbounds i8, ptr %81, i64 1
  store ptr %82, ptr %7, align 8, !tbaa !98
  %83 = load ptr, ptr %7, align 8, !tbaa !98
  %84 = call noundef ptr @strpbrk(ptr noundef %83, ptr noundef @.str) #15
  store ptr %84, ptr %13, align 8, !tbaa !98
  br label %106

85:                                               ; preds = %69
  call void @llvm.lifetime.start.p0(i64 8, ptr %19) #13
  %86 = load ptr, ptr %13, align 8, !tbaa !98
  %87 = call noundef zeroext i1 @_Z15hb_parse_doublePPKcS0_Pdb(ptr noundef %7, ptr noundef %86, ptr noundef %19, i1 noundef zeroext false)
  br i1 %87, label %89, label %88

88:                                               ; preds = %85
  store i32 0, ptr %6, align 4
  store i32 1, ptr %14, align 4
  br label %103

89:                                               ; preds = %85
  %90 = load double, ptr %19, align 8, !tbaa !74
  %91 = fptrunc double %90 to float
  %92 = load i32, ptr %18, align 4, !tbaa !43
  %93 = sext i32 %92 to i64
  %94 = getelementptr inbounds [3 x float], ptr %16, i64 0, i64 %93
  store float %91, ptr %94, align 4, !tbaa !86
  %95 = load ptr, ptr %13, align 8, !tbaa !98
  %96 = icmp eq ptr %95, null
  br i1 %96, label %97, label %98

97:                                               ; preds = %89
  store i32 2, ptr %14, align 4
  br label %103

98:                                               ; preds = %89
  %99 = load ptr, ptr %13, align 8, !tbaa !98
  %100 = getelementptr inbounds i8, ptr %99, i64 1
  store ptr %100, ptr %7, align 8, !tbaa !98
  %101 = load ptr, ptr %7, align 8, !tbaa !98
  %102 = call noundef ptr @strpbrk(ptr noundef %101, ptr noundef @.str) #15
  store ptr %102, ptr %13, align 8, !tbaa !98
  store i32 0, ptr %14, align 4
  br label %103

103:                                              ; preds = %98, %97, %88
  call void @llvm.lifetime.end.p0(i64 8, ptr %19) #13
  %104 = load i32, ptr %14, align 4
  switch i32 %104, label %109 [
    i32 0, label %105
  ]

105:                                              ; preds = %103
  br label %106

106:                                              ; preds = %105, %80
  %107 = load i32, ptr %18, align 4, !tbaa !43
  %108 = add nsw i32 %107, 1
  store i32 %108, ptr %18, align 4, !tbaa !43
  br label %59, !llvm.loop !101

109:                                              ; preds = %103, %79, %62
  call void @llvm.lifetime.end.p0(i64 4, ptr %18) #13
  %110 = load i32, ptr %14, align 4
  switch i32 %110, label %137 [
    i32 2, label %111
  ]

111:                                              ; preds = %109
  %112 = load i32, ptr %17, align 4, !tbaa !43
  %113 = icmp eq i32 %112, 2
  br i1 %113, label %114, label %122

114:                                              ; preds = %111
  %115 = getelementptr inbounds [3 x float], ptr %16, i64 0, i64 0
  %116 = load float, ptr %115, align 4, !tbaa !86
  %117 = load ptr, ptr %9, align 8, !tbaa !91
  store float %116, ptr %117, align 4, !tbaa !86
  %118 = load ptr, ptr %11, align 8, !tbaa !91
  store float 0x7FF8000000000000, ptr %118, align 4, !tbaa !86
  %119 = getelementptr inbounds [3 x float], ptr %16, i64 0, i64 1
  %120 = load float, ptr %119, align 4, !tbaa !86
  %121 = load ptr, ptr %10, align 8, !tbaa !91
  store float %120, ptr %121, align 4, !tbaa !86
  store i32 1, ptr %6, align 4
  store i32 1, ptr %14, align 4
  br label %137

122:                                              ; preds = %111
  %123 = load i32, ptr %17, align 4, !tbaa !43
  %124 = icmp eq i32 %123, 3
  br i1 %124, label %125, label %135

125:                                              ; preds = %122
  %126 = getelementptr inbounds [3 x float], ptr %16, i64 0, i64 0
  %127 = load float, ptr %126, align 4, !tbaa !86
  %128 = load ptr, ptr %9, align 8, !tbaa !91
  store float %127, ptr %128, align 4, !tbaa !86
  %129 = getelementptr inbounds [3 x float], ptr %16, i64 0, i64 1
  %130 = load float, ptr %129, align 4, !tbaa !86
  %131 = load ptr, ptr %11, align 8, !tbaa !91
  store float %130, ptr %131, align 4, !tbaa !86
  %132 = getelementptr inbounds [3 x float], ptr %16, i64 0, i64 2
  %133 = load float, ptr %132, align 4, !tbaa !86
  %134 = load ptr, ptr %10, align 8, !tbaa !91
  store float %133, ptr %134, align 4, !tbaa !86
  store i32 1, ptr %6, align 4
  store i32 1, ptr %14, align 4
  br label %137

135:                                              ; preds = %122
  br label %136

136:                                              ; preds = %135
  store i32 0, ptr %6, align 4
  store i32 1, ptr %14, align 4
  br label %137

137:                                              ; preds = %136, %125, %114, %109
  call void @llvm.lifetime.end.p0(i64 4, ptr %17) #13
  call void @llvm.lifetime.end.p0(i64 12, ptr %16) #13
  br label %138

138:                                              ; preds = %137, %57, %39
  call void @llvm.lifetime.end.p0(i64 8, ptr %13) #13
  call void @llvm.lifetime.end.p0(i64 8, ptr %12) #13
  %139 = load i32, ptr %6, align 4
  ret i32 %139
}