; Function Attrs: mustprogress nounwind uwtable
define dso_local range(i32 0, 2) i32 @hb_subset_axis_range_from_string(ptr noundef %0, i32 noundef %1, ptr noundef writeonly captures(none) %2, ptr noundef writeonly captures(none) %3, ptr noundef writeonly captures(none) %4) local_unnamed_addr #0 {
  %6 = alloca ptr, align 8
  %7 = alloca double, align 8
  %8 = alloca [3 x float], align 4
  %9 = alloca double, align 8
  store ptr %0, ptr %6, align 8, !tbaa !87
  %10 = icmp slt i32 %1, 0
  br i1 %10, label %11, label %14

11:                                               ; preds = %5
  %12 = tail call i64 @strlen(ptr noundef nonnull dereferenceable(1) %0) #23
  %13 = trunc i64 %12 to i32
  br label %14

14:                                               ; preds = %11, %5
  %.040 = phi i32 [ %13, %11 ], [ %1, %5 ]
  %15 = sext i32 %.040 to i64
  %16 = getelementptr inbounds i8, ptr %0, i64 %15
  %strchr = tail call ptr @strchr(ptr noundef nonnull dereferenceable(1) %0, i32 58)
  %.not = icmp eq ptr %strchr, null
  br i1 %.not, label %17, label %27

17:                                               ; preds = %14
  %18 = tail call i32 @strcmp(ptr noundef nonnull dereferenceable(1) %0, ptr noundef nonnull dereferenceable(5) @.str.1) #23
  %19 = icmp eq i32 %18, 0
  br i1 %19, label %20, label %21

20:                                               ; preds = %17
  store float 0x7FF8000000000000, ptr %2, align 4, !tbaa !86
  store float 0x7FF8000000000000, ptr %4, align 4, !tbaa !86
  store float 0x7FF8000000000000, ptr %3, align 4, !tbaa !86
  br label %59

21:                                               ; preds = %17
  call void @llvm.lifetime.start.p0(i64 8, ptr nonnull %7) #21
  %22 = call noundef zeroext i1 @_Z15hb_parse_doublePPKcS0_Pdb(ptr noundef nonnull %6, ptr noundef nonnull %16, ptr noundef nonnull %7, i1 noundef zeroext false) #21
  br i1 %22, label %23, label %26

23:                                               ; preds = %21
  %24 = load double, ptr %7, align 8, !tbaa !89
  %25 = fptrunc double %24 to float
  store float %25, ptr %2, align 4, !tbaa !86
  store float %25, ptr %4, align 4, !tbaa !86
  store float %25, ptr %3, align 4, !tbaa !86
  br label %26

26:                                               ; preds = %21, %23
  %.138 = phi i32 [ 1, %23 ], [ 0, %21 ]
  call void @llvm.lifetime.end.p0(i64 8, ptr nonnull %7) #21
  br label %59

27:                                               ; preds = %14
  call void @llvm.lifetime.start.p0(i64 12, ptr nonnull %8) #21
  br label %28

28:                                               ; preds = %27, %46
  %29 = phi ptr [ %0, %27 ], [ %47, %46 ]
  %indvars.iv = phi i64 [ 0, %27 ], [ %indvars.iv.next, %46 ]
  %.03559 = phi ptr [ %strchr, %27 ], [ %.136, %46 ]
  %indvars.iv.next = add nuw nsw i64 %indvars.iv, 1
  %30 = load i8, ptr %29, align 1, !tbaa !90
  %.not43 = icmp eq i8 %30, 0
  %31 = icmp eq ptr %.03559, %29
  %or.cond = select i1 %.not43, i1 true, i1 %31
  br i1 %or.cond, label %32, label %37

32:                                               ; preds = %28
  %33 = getelementptr inbounds nuw [3 x float], ptr %8, i64 0, i64 %indvars.iv
  store float 0x7FF8000000000000, ptr %33, align 4, !tbaa !86
  %34 = icmp eq ptr %.03559, null
  br i1 %34, label %.thread50, label %35

35:                                               ; preds = %32
  %36 = getelementptr inbounds nuw i8, ptr %.03559, i64 1
  store ptr %36, ptr %6, align 8, !tbaa !87
  %strchr45 = call ptr @strchr(ptr noundef nonnull dereferenceable(1) %36, i32 58)
  br label %46

37:                                               ; preds = %28
  call void @llvm.lifetime.start.p0(i64 8, ptr nonnull %9) #21
  %38 = call noundef zeroext i1 @_Z15hb_parse_doublePPKcS0_Pdb(ptr noundef nonnull %6, ptr noundef %.03559, ptr noundef nonnull %9, i1 noundef zeroext false) #21
  br i1 %38, label %39, label %48

39:                                               ; preds = %37
  %40 = load double, ptr %9, align 8, !tbaa !89
  %41 = fptrunc double %40 to float
  %42 = getelementptr inbounds nuw [3 x float], ptr %8, i64 0, i64 %indvars.iv
  store float %41, ptr %42, align 4, !tbaa !86
  %43 = icmp eq ptr %.03559, null
  br i1 %43, label %.thread55, label %44

.thread55:                                        ; preds = %39
  call void @llvm.lifetime.end.p0(i64 8, ptr nonnull %9) #21
  br label %.thread50

44:                                               ; preds = %39
  %45 = getelementptr inbounds nuw i8, ptr %.03559, i64 1
  store ptr %45, ptr %6, align 8, !tbaa !87
  %strchr44 = call ptr @strchr(ptr noundef nonnull dereferenceable(1) %45, i32 58)
  call void @llvm.lifetime.end.p0(i64 8, ptr nonnull %9) #21
  br label %46

46:                                               ; preds = %44, %35
  %47 = phi ptr [ %36, %35 ], [ %45, %44 ]
  %.136 = phi ptr [ %strchr45, %35 ], [ %strchr44, %44 ]
  %exitcond.not = icmp eq i64 %indvars.iv.next, 3
  br i1 %exitcond.not, label %.thread50.thread, label %28, !llvm.loop !91

48:                                               ; preds = %37
  call void @llvm.lifetime.end.p0(i64 8, ptr nonnull %9) #21
  br label %58

.thread50:                                        ; preds = %32, %.thread55
  %indvars6772 = trunc i64 %indvars.iv to i32
  switch i32 %indvars6772, label %58 [
    i32 1, label %49
    i32 2, label %.thread50.thread
  ]

49:                                               ; preds = %.thread50
  %50 = load float, ptr %8, align 4, !tbaa !86
  store float %50, ptr %2, align 4, !tbaa !86
  store float 0x7FF8000000000000, ptr %4, align 4, !tbaa !86
  %51 = getelementptr inbounds nuw i8, ptr %8, i64 4
  %52 = load float, ptr %51, align 4, !tbaa !86
  store float %52, ptr %3, align 4, !tbaa !86
  br label %58

.thread50.thread:                                 ; preds = %46, %.thread50
  %53 = load float, ptr %8, align 4, !tbaa !86
  store float %53, ptr %2, align 4, !tbaa !86
  %54 = getelementptr inbounds nuw i8, ptr %8, i64 4
  %55 = load float, ptr %54, align 4, !tbaa !86
  store float %55, ptr %4, align 4, !tbaa !86
  %56 = getelementptr inbounds nuw i8, ptr %8, i64 8
  %57 = load float, ptr %56, align 4, !tbaa !86
  store float %57, ptr %3, align 4, !tbaa !86
  br label %58

58:                                               ; preds = %48, %.thread50, %.thread50.thread, %49
  %.6 = phi i32 [ 1, %49 ], [ 1, %.thread50.thread ], [ 0, %48 ], [ 0, %.thread50 ]
  call void @llvm.lifetime.end.p0(i64 12, ptr nonnull %8) #21
  br label %59

59:                                               ; preds = %58, %26, %20
  %.037 = phi i32 [ %.6, %58 ], [ 1, %20 ], [ %.138, %26 ]
  ret i32 %.037
}